target datalayout = "e-m:e-p270:32:32-p271:32:32-p272:64:64-i64:64-i128:128-f80:128-n8:16:32:64-S128"
target triple = "x86_64-pc-linux-gnu"

%"class.Minisat::vec.3" = type { ptr, i32, i32 }

@_ZTIN7Minisat20OutOfMemoryExceptionE = linkonce_odr constant { ptr, ptr } { ptr getelementptr inbounds (ptr, ptr @_ZTVN10__cxxabiv117__class_type_infoE, i64 2), ptr @_ZTSN7Minisat20OutOfMemoryExceptionE }, comdat, align 8

; Function Attrs: mustprogress nounwind uwtable
define linkonce_odr noundef i32 @_ZN7Minisat3vecIiiE3maxEii(i32 noundef %0, i32 noundef %1) #1 comdat align 2 {
  %3 = alloca i32, align 4
  %4 = alloca i32, align 4
  store i32 %0, ptr %3, align 4
  store i32 %1, ptr %4, align 4
  %5 = load i32, ptr %3, align 4
  %6 = load i32, ptr %4, align 4
  %7 = icmp sgt i32 %5, %6
  br i1 %7, label %8, label %10

8:                                                ; preds = %2
  %9 = load i32, ptr %3, align 4
  br label %12

10:                                               ; preds = %2
  %11 = load i32, ptr %4, align 4
  br label %12

12:                                               ; preds = %10, %8
  %13 = phi i32 [ %9, %8 ], [ %11, %10 ]
  ret i32 %13
}

; Function Attrs: mustprogress uwtable
define linkonce_odr void @_ZN7Minisat3vecIiiE8capacityEi(ptr noundef nonnull align 8 dereferenceable(16) %0, i32 noundef %1) #2 comdat align 2 {
  %3 = alloca ptr, align 8
  %4 = alloca i32, align 4
  %5 = alloca i32, align 4
  %6 = alloca i32, align 4
  store ptr %0, ptr %3, align 8
  store i32 %1, ptr %4, align 4
  %7 = load ptr, ptr %3, align 8
  %8 = getelementptr inbounds %"class.Minisat::vec.3", ptr %7, i32 0, i32 2
  %9 = load i32, ptr %8, align 4
  %10 = load i32, ptr %4, align 4
  %11 = icmp sge i32 %9, %10
  br i1 %11, label %12, label %13

12:                                               ; preds = %2
  br label %49

13:                                               ; preds = %2
  %14 = load i32, ptr %4, align 4
  %15 = getelementptr inbounds %"class.Minisat::vec.3", ptr %7, i32 0, i32 2
  %16 = load i32, ptr %15, align 4
  %17 = sub nsw i32 %14, %16
  %18 = add nsw i32 %17, 1
  %19 = and i32 %18, -2
  %20 = getelementptr inbounds %"class.Minisat::vec.3", ptr %7, i32 0, i32 2
  %21 = load i32, ptr %20, align 4
  %22 = ashr i32 %21, 1
  %23 = add nsw i32 %22, 2
  %24 = and i32 %23, -2
  %25 = call noundef i32 @_ZN7Minisat3vecIiiE3maxEii(i32 noundef %19, i32 noundef %24)
  store i32 %25, ptr %5, align 4
  store i32 2147483647, ptr %6, align 4
  %26 = load i32, ptr %5, align 4
  %27 = getelementptr inbounds %"class.Minisat::vec.3", ptr %7, i32 0, i32 2
  %28 = load i32, ptr %27, align 4
  %29 = sub nsw i32 2147483647, %28
  %30 = icmp sgt i32 %26, %29
  br i1 %30, label %47, label %31

31:                                               ; preds = %13
  %32 = getelementptr inbounds %"class.Minisat::vec.3", ptr %7, i32 0, i32 0
  %33 = load ptr, ptr %32, align 8
  %34 = load i32, ptr %5, align 4
  %35 = getelementptr inbounds %"class.Minisat::vec.3", ptr %7, i32 0, i32 2
  %36 = load i32, ptr %35, align 4
  %37 = add nsw i32 %36, %34
  store i32 %37, ptr %35, align 4
  %38 = sext i32 %37 to i64
  %39 = mul i64 %38, 4
  %40 = call ptr @realloc(ptr noundef %33, i64 noundef %39) #18
  %41 = getelementptr inbounds %"class.Minisat::vec.3", ptr %7, i32 0, i32 0
  store ptr %40, ptr %41, align 8
  %42 = icmp eq ptr %40, null
  br i1 %42, label %43, label %49

43:                                               ; preds = %31
  %44 = call ptr @__errno_location() #19
  %45 = load i32, ptr %44, align 4
  %46 = icmp eq i32 %45, 12
  br i1 %46, label %47, label %49

47:                                               ; preds = %43, %13
  %48 = call ptr @__cxa_allocate_exception(i64 1) #3
  call void @__cxa_throw(ptr %48, ptr @_ZTIN7Minisat20OutOfMemoryExceptionE, ptr null) #20
  unreachable

49:                                               ; preds = %43, %31, %12
  ret void
}

; Function Attrs: mustprogress nounwind uwtable
define internal void @_ZN7MinisatL4copyIiEEvRKT_RS1_(ptr noundef nonnull align 4 dereferenceable(4) %0, ptr noundef nonnull align 4 dereferenceable(4) %1) #1 {
  %3 = alloca ptr, align 8
  %4 = alloca ptr, align 8
  store ptr %0, ptr %3, align 8
  store ptr %1, ptr %4, align 8
  %5 = load ptr, ptr %3, align 8
  %6 = load i32, ptr %5, align 4
  %7 = load ptr, ptr %4, align 8
  store i32 %6, ptr %7, align 4
  ret void
}

; Function Attrs: mustprogress nounwind uwtable
define linkonce_odr noundef nonnull align 4 dereferenceable(4) ptr @_ZN7Minisat3vecIiiE4lastEv(ptr noundef nonnull align 8 dereferenceable(16) %0) #1 comdat align 2 {
  %2 = alloca ptr, align 8
  store ptr %0, ptr %2, align 8
  %3 = load ptr, ptr %2, align 8
  %4 = getelementptr inbounds %"class.Minisat::vec.3", ptr %3, i32 0, i32 0
  %5 = load ptr, ptr %4, align 8
  %6 = getelementptr inbounds %"class.Minisat::vec.3", ptr %3, i32 0, i32 1
  %7 = load i32, ptr %6, align 8
  %8 = sub nsw i32 %7, 1
  %9 = sext i32 %8 to i64
  %10 = getelementptr inbounds i32, ptr %5, i64 %9
  ret ptr %10
}

; Function Attrs: mustprogress nounwind uwtable
define linkonce_odr noundef nonnull align 4 dereferenceable(4) ptr @_ZNK7Minisat3vecIiiEixEi(ptr noundef nonnull align 8 dereferenceable(16) %0, i32 noundef %1) #1 comdat align 2 {
  %3 = alloca ptr, align 8
  %4 = alloca i32, align 4
  store ptr %0, ptr %3, align 8
  store i32 %1, ptr %4, align 4
  %5 = load ptr, ptr %3, align 8
  %6 = getelementptr inbounds %"class.Minisat::vec.3", ptr %5, i32 0, i32 0
  %7 = load ptr, ptr %6, align 8
  %8 = load i32, ptr %4, align 4
  %9 = sext i32 %8 to i64
  %10 = getelementptr inbounds i32, ptr %7, i64 %9
  ret ptr %10
}

; Function Attrs: mustprogress uwtable
define linkonce_odr void @_ZN7Minisat3vecIiiE4pushEv(ptr noundef nonnull align 8 dereferenceable(16) %0) #2 comdat align 2 {
  %2 = alloca ptr, align 8
  store ptr %0, ptr %2, align 8
  %3 = load ptr, ptr %2, align 8
  %4 = getelementptr inbounds %"class.Minisat::vec.3", ptr %3, i32 0, i32 1
  %5 = load i32, ptr %4, align 8
  %6 = getelementptr inbounds %"class.Minisat::vec.3", ptr %3, i32 0, i32 2
  %7 = load i32, ptr %6, align 4
  %8 = icmp eq i32 %5, %7
  br i1 %8, label %9, label %13

9:                                                ; preds = %1
  %10 = getelementptr inbounds %"class.Minisat::vec.3", ptr %3, i32 0, i32 1
  %11 = load i32, ptr %10, align 8
  %12 = add nsw i32 %11, 1
  call void @_ZN7Minisat3vecIiiE8capacityEi(ptr noundef nonnull align 8 dereferenceable(16) %3, i32 noundef %12)
  br label %13

13:                                               ; preds = %9, %1
  %14 = getelementptr inbounds %"class.Minisat::vec.3", ptr %3, i32 0, i32 0
  %15 = load ptr, ptr %14, align 8
  %16 = getelementptr inbounds %"class.Minisat::vec.3", ptr %3, i32 0, i32 1
  %17 = load i32, ptr %16, align 8
  %18 = sext i32 %17 to i64
  %19 = getelementptr inbounds i32, ptr %15, i64 %18
  store i32 0, ptr %19, align 4
  %20 = getelementptr inbounds %"class.Minisat::vec.3", ptr %3, i32 0, i32 1
  %21 = load i32, ptr %20, align 8
  %22 = add nsw i32 %21, 1
  store i32 %22, ptr %20, align 8
  ret void
}

; Function Attrs: mustprogress nounwind uwtable
define linkonce_odr noundef i32 @_ZNK7Minisat3vecIiiE4sizeEv(ptr noundef nonnull align 8 dereferenceable(16) %0) #1 comdat align 2 {
  %2 = alloca ptr, align 8
  store ptr %0, ptr %2, align 8
  %3 = load ptr, ptr %2, align 8
  %4 = getelementptr inbounds %"class.Minisat::vec.3", ptr %3, i32 0, i32 1
  %5 = load i32, ptr %4, align 8
  ret i32 %5
}

; Function Attrs: mustprogress nounwind uwtable
define linkonce_odr void @_ZN7Minisat3vecIiiE5clearEb(ptr noundef nonnull align 8 dereferenceable(16) %0, i1 noundef zeroext %1) #1 comdat align 2 {
  %3 = alloca ptr, align 8
  %4 = alloca i8, align 1
  %5 = alloca i32, align 4
  store ptr %0, ptr %3, align 8
  %6 = zext i1 %1 to i8
  store i8 %6, ptr %4, align 1
  %7 = load ptr, ptr %3, align 8
  %8 = getelementptr inbounds %"class.Minisat::vec.3", ptr %7, i32 0, i32 0
  %9 = load ptr, ptr %8, align 8
  %10 = icmp ne ptr %9, null
  br i1 %10, label %11, label %31

11:                                               ; preds = %2
  store i32 0, ptr %5, align 4
  br label %12

12:                                               ; preds = %18, %11
  %13 = load i32, ptr %5, align 4
  %14 = getelementptr inbounds %"class.Minisat::vec.3", ptr %7, i32 0, i32 1
  %15 = load i32, ptr %14, align 8
  %16 = icmp slt i32 %13, %15
  br i1 %16, label %17, label %21

17:                                               ; preds = %12
  br label %18

18:                                               ; preds = %17
  %19 = load i32, ptr %5, align 4
  %20 = add nsw i32 %19, 1
  store i32 %20, ptr %5, align 4
  br label %12, !llvm.loop !47

21:                                               ; preds = %12
  %22 = getelementptr inbounds %"class.Minisat::vec.3", ptr %7, i32 0, i32 1
  store i32 0, ptr %22, align 8
  %23 = load i8, ptr %4, align 1
  %24 = trunc i8 %23 to i1
  br i1 %24, label %25, label %30

25:                                               ; preds = %21
  %26 = getelementptr inbounds %"class.Minisat::vec.3", ptr %7, i32 0, i32 0
  %27 = load ptr, ptr %26, align 8
  call void @free(ptr noundef %27) #3
  %28 = getelementptr inbounds %"class.Minisat::vec.3", ptr %7, i32 0, i32 0
  store ptr null, ptr %28, align 8
  %29 = getelementptr inbounds %"class.Minisat::vec.3", ptr %7, i32 0, i32 2
  store i32 0, ptr %29, align 4
  br label %30

30:                                               ; preds = %25, %21
  br label %31

31:                                               ; preds = %30, %2
  ret void
}

; Function Attrs: mustprogress uwtable
define internal void @_ZN7MinisatL4copyIiEEvRKNS_3vecIT_iEERS3_b(ptr noundef nonnull align 8 dereferenceable(16) %0, ptr noundef nonnull align 8 dereferenceable(16) %1, i1 noundef zeroext %2) #2 {
  %4 = alloca ptr, align 8
  %5 = alloca ptr, align 8
  %6 = alloca i8, align 1
  %7 = alloca i32, align 4
  store ptr %0, ptr %4, align 8
  store ptr %1, ptr %5, align 8
  %8 = zext i1 %2 to i8
  store i8 %8, ptr %6, align 1
  %9 = load i8, ptr %6, align 1
  %10 = trunc i8 %9 to i1
  br i1 %10, label %13, label %11

11:                                               ; preds = %3
  %12 = load ptr, ptr %5, align 8
  call void @_ZN7Minisat3vecIiiE5clearEb(ptr noundef nonnull align 8 dereferenceable(16) %12, i1 noundef zeroext false)
  br label %13

13:                                               ; preds = %11, %3
  store i32 0, ptr %7, align 4
  br label %14

14:                                               ; preds = %26, %13
  %15 = load i32, ptr %7, align 4
  %16 = load ptr, ptr %4, align 8
  %17 = call noundef i32 @_ZNK7Minisat3vecIiiE4sizeEv(ptr noundef nonnull align 8 dereferenceable(16) %16)
  %18 = icmp slt i32 %15, %17
  br i1 %18, label %19, label %29

19:                                               ; preds = %14
  %20 = load ptr, ptr %5, align 8
  call void @_ZN7Minisat3vecIiiE4pushEv(ptr noundef nonnull align 8 dereferenceable(16) %20)
  %21 = load ptr, ptr %4, align 8
  %22 = load i32, ptr %7, align 4
  %23 = call noundef nonnull align 4 dereferenceable(4) ptr @_ZNK7Minisat3vecIiiEixEi(ptr noundef nonnull align 8 dereferenceable(16) %21, i32 noundef %22)
  %24 = load ptr, ptr %5, align 8
  %25 = call noundef nonnull align 4 dereferenceable(4) ptr @_ZN7Minisat3vecIiiE4lastEv(ptr noundef nonnull align 8 dereferenceable(16) %24)
  call void @_ZN7MinisatL4copyIiEEvRKT_RS1_(ptr noundef nonnull align 4 dereferenceable(4) %23, ptr noundef nonnull align 4 dereferenceable(4) %25)
  br label %26

26:                                               ; preds = %19
  %27 = load i32, ptr %7, align 4
  %28 = add nsw i32 %27, 1
  store i32 %28, ptr %7, align 4
  br label %14, !llvm.loop !108

29:                                               ; preds = %14
  ret void
}

; Function Attrs: mustprogress uwtable
define internal void @_ZN7MinisatL6appendIiEEvRKNS_3vecIT_iEERS3_(ptr noundef nonnull align 8 dereferenceable(16) %0, ptr noundef nonnull align 8 dereferenceable(16) %1) #2 {
  %3 = alloca ptr, align 8
  %4 = alloca ptr, align 8
  store ptr %0, ptr %3, align 8
  store ptr %1, ptr %4, align 8
  %5 = load ptr, ptr %3, align 8
  %6 = load ptr, ptr %4, align 8
  call void @_ZN7MinisatL4copyIiEEvRKNS_3vecIT_iEERS3_b(ptr noundef nonnull align 8 dereferenceable(16) %5, ptr noundef nonnull align 8 dereferenceable(16) %6, i1 noundef zeroext true)
  ret void
}