; Function Attrs: mustprogress uwtable
define internal fastcc void @_ZN7MinisatL6appendIiEEvRKNS_3vecIT_iEERS3_(ptr nocapture noundef nonnull readonly align 8 dereferenceable(16) %0, ptr nocapture noundef nonnull align 8 dereferenceable(16) %1) unnamed_addr #2 {
  %3 = getelementptr inbounds i8, ptr %0, i64 8
  %4 = load i32, ptr %3, align 8
  %5 = icmp sgt i32 %4, 0
  br i1 %5, label %.lr.ph.i, label %_ZN7MinisatL4copyIiEEvRKNS_3vecIT_iEERS3_b.exit

.lr.ph.i:                                         ; preds = %2
  %6 = getelementptr inbounds i8, ptr %1, i64 8
  %7 = getelementptr inbounds i8, ptr %1, i64 12
  br label %8

8:                                                ; preds = %_ZN7Minisat3vecIiiE4pushEv.exit.i, %.lr.ph.i
  %indvars.iv.i = phi i64 [ 0, %.lr.ph.i ], [ %indvars.iv.next.i, %_ZN7Minisat3vecIiiE4pushEv.exit.i ]
  %9 = load i32, ptr %6, align 8
  %10 = load i32, ptr %7, align 4
  %11 = icmp eq i32 %9, %10
  br i1 %11, label %12, label %._ZN7Minisat3vecIiiE8capacityEi.exit_crit_edge.i.i

._ZN7Minisat3vecIiiE8capacityEi.exit_crit_edge.i.i: ; preds = %8
  %.pre.i.i = load ptr, ptr %1, align 8
  br label %_ZN7Minisat3vecIiiE4pushEv.exit.i

12:                                               ; preds = %8
  %13 = ashr i32 %9, 1
  %14 = and i32 %13, -2
  %15 = tail call i32 @llvm.smax.i32(i32 %14, i32 0)
  %16 = add nuw nsw i32 %15, 2
  %17 = sub nsw i32 2147483647, %9
  %18 = icmp ugt i32 %16, %17
  br i1 %18, label %.loopexit.i, label %19

19:                                               ; preds = %12
  %20 = load ptr, ptr %1, align 8
  %21 = add nsw i32 %16, %9
  store i32 %21, ptr %7, align 4
  %22 = sext i32 %21 to i64
  %23 = shl nsw i64 %22, 2
  %24 = tail call ptr @realloc(ptr noundef %20, i64 noundef %23) #27
  store ptr %24, ptr %1, align 8
  %25 = icmp eq ptr %24, null
  br i1 %25, label %26, label %._ZN7Minisat3vecIiiE4pushEv.exit_crit_edge.i

._ZN7Minisat3vecIiiE4pushEv.exit_crit_edge.i:     ; preds = %19
  %.pre.i = load i32, ptr %6, align 8
  br label %_ZN7Minisat3vecIiiE4pushEv.exit.i

26:                                               ; preds = %19
  %27 = tail call ptr @__errno_location() #28
  %28 = load i32, ptr %27, align 4
  %29 = icmp eq i32 %28, 12
  tail call void @llvm.assume(i1 %29)
  br label %.loopexit.i

.loopexit.i:                                      ; preds = %12, %26
  %30 = tail call ptr @__cxa_allocate_exception(i64 1) #25
  tail call void @__cxa_throw(ptr %30, ptr nonnull @_ZTIN7Minisat20OutOfMemoryExceptionE, ptr null) #29
  unreachable

_ZN7Minisat3vecIiiE4pushEv.exit.i:                ; preds = %._ZN7Minisat3vecIiiE4pushEv.exit_crit_edge.i, %._ZN7Minisat3vecIiiE8capacityEi.exit_crit_edge.i.i
  %31 = phi i32 [ %9, %._ZN7Minisat3vecIiiE8capacityEi.exit_crit_edge.i.i ], [ %.pre.i, %._ZN7Minisat3vecIiiE4pushEv.exit_crit_edge.i ]
  %32 = phi ptr [ %.pre.i.i, %._ZN7Minisat3vecIiiE8capacityEi.exit_crit_edge.i.i ], [ %24, %._ZN7Minisat3vecIiiE4pushEv.exit_crit_edge.i ]
  %33 = sext i32 %31 to i64
  %34 = getelementptr inbounds i32, ptr %32, i64 %33
  store i32 0, ptr %34, align 4
  %35 = load i32, ptr %6, align 8
  %36 = add nsw i32 %35, 1
  store i32 %36, ptr %6, align 8
  %37 = load ptr, ptr %0, align 8
  %38 = getelementptr inbounds i32, ptr %37, i64 %indvars.iv.i
  %39 = load ptr, ptr %1, align 8
  %40 = sext i32 %36 to i64
  %41 = getelementptr i32, ptr %39, i64 %40
  %42 = getelementptr i8, ptr %41, i64 -4
  %.val.i = load i32, ptr %38, align 4
  store i32 %.val.i, ptr %42, align 4
  %indvars.iv.next.i = add nuw nsw i64 %indvars.iv.i, 1
  %43 = load i32, ptr %3, align 8
  %44 = sext i32 %43 to i64
  %45 = icmp slt i64 %indvars.iv.next.i, %44
  br i1 %45, label %8, label %_ZN7MinisatL4copyIiEEvRKNS_3vecIT_iEERS3_b.exit, !llvm.loop !49

_ZN7MinisatL4copyIiEEvRKNS_3vecIT_iEERS3_b.exit:  ; preds = %_ZN7Minisat3vecIiiE4pushEv.exit.i, %2
  ret void
}